; Function Attrs: nofree norecurse nosync nounwind memory(readwrite, inaccessiblemem: none) uwtable
define range(i32 0, 2) i32 @Acb_ObjRemoveDupFanins_int(ptr noundef readonly captures(none) %0, i32 noundef %1) local_unnamed_addr #1 {
  %3 = getelementptr i8, ptr %0, i64 136
  %.val = load ptr, ptr %3, align 8, !tbaa !12
  %4 = getelementptr i8, ptr %0, i64 152
  %.val19 = load ptr, ptr %4, align 8, !tbaa !12
  %5 = sext i32 %1 to i64
  %6 = getelementptr inbounds i32, ptr %.val, i64 %5
  %7 = load i32, ptr %6, align 4, !tbaa !15
  %8 = sext i32 %7 to i64
  %9 = getelementptr inbounds i32, ptr %.val19, i64 %8
  %10 = load i32, ptr %9, align 4, !tbaa !15
  %11 = icmp sgt i32 %10, 0
  br i1 %11, label %.lr.ph.preheader, label %.loopexit20

.lr.ph.preheader:                                 ; preds = %2
  %wide.trip.count32 = zext nneg i32 %10 to i64
  br label %.lr.ph

.loopexit:                                        ; preds = %13
  %indvars.iv.next = add nuw nsw i64 %indvars.iv, 1
  %exitcond33.not = icmp eq i64 %indvars.iv.next30, %wide.trip.count32
  br i1 %exitcond33.not, label %.loopexit20, label %.lr.ph, !llvm.loop !29

.lr.ph:                                           ; preds = %.lr.ph.preheader, %.loopexit
  %indvars.iv29 = phi i64 [ 0, %.lr.ph.preheader ], [ %indvars.iv.next30, %.loopexit ]
  %indvars.iv = phi i64 [ 1, %.lr.ph.preheader ], [ %indvars.iv.next, %.loopexit ]
  %indvars.iv.next30 = add nuw nsw i64 %indvars.iv29, 1
  %12 = getelementptr inbounds nuw i32, ptr %9, i64 %indvars.iv.next30
  br label %13

13:                                               ; preds = %14, %.lr.ph
  %indvars.iv26 = phi i64 [ %indvars.iv.next27, %14 ], [ %indvars.iv, %.lr.ph ]
  %exitcond.not = icmp eq i64 %indvars.iv26, %wide.trip.count32
  br i1 %exitcond.not, label %.loopexit, label %14

14:                                               ; preds = %13
  %15 = load i32, ptr %12, align 4, !tbaa !15
  %indvars.iv.next27 = add nuw nsw i64 %indvars.iv26, 1
  %16 = getelementptr inbounds nuw i32, ptr %9, i64 %indvars.iv.next27
  %17 = load i32, ptr %16, align 4, !tbaa !15
  %.not = icmp eq i32 %15, %17
  br i1 %.not, label %18, label %13, !llvm.loop !30

18:                                               ; preds = %14
  %19 = trunc nuw nsw i64 %indvars.iv29 to i32
  %20 = trunc nuw nsw i64 %indvars.iv26 to i32
  tail call void @Acb_ObjRemoveDup(ptr noundef %0, i32 noundef %1, i32 noundef %19, i32 noundef %20)
  br label %.loopexit20

.loopexit20:                                      ; preds = %.loopexit, %2, %18
  %.0 = phi i32 [ 1, %18 ], [ 0, %2 ], [ 0, %.loopexit ]
  ret i32 %.0
}